target datalayout = "e-m:e-p270:32:32-p271:32:32-p272:64:64-i64:64-i128:128-f80:128-n8:16:32:64-S128"
target triple = "x86_64-pc-linux-gnu"

%struct.client = type { i64, i64, ptr, i8, i8, i8, i8, i32, ptr, ptr, ptr, ptr, ptr, i64, i64, i32, ptr, i32, i32, ptr, i64, ptr, ptr, ptr, ptr, ptr, i32, i32, i64, ptr, i64, ptr, i64, i64, i64, i32, ptr, i64, i64, i32, i32, i32, i32, i64, i64, ptr, i64, i64, i64, i64, i64, i64, i64, i64, [41 x i8], i32, ptr, i32, i32, i64, %struct.multiState, %struct.blockingState, i64, ptr, ptr, ptr, ptr, ptr, ptr, ptr, ptr, ptr, ptr, ptr, ptr, ptr, ptr, i64, ptr, i64, i32, ptr, ptr, ptr, i64, %struct.listNode, i64, i64, i32, i64, ptr }
%struct.multiState = type { ptr, i32, i32, i32, i64, i32 }
%struct.blockingState = type { i32, i64, i32, ptr, i32, i32, i64, ptr, ptr, i64 }
%struct.listNode = type { ptr, ptr, ptr }

; Function Attrs: nounwind uwtable
define dso_local void @sinterstoreCommand(ptr noundef %0) #0 {
  %2 = alloca ptr, align 8
  store ptr %0, ptr %2, align 8, !tbaa !71
  %3 = load ptr, ptr %2, align 8, !tbaa !71
  %4 = load ptr, ptr %2, align 8, !tbaa !71
  %5 = getelementptr inbounds nuw %struct.client, ptr %4, i32 0, i32 16
  %6 = load ptr, ptr %5, align 8, !tbaa !81
  %7 = getelementptr inbounds ptr, ptr %6, i64 2
  %8 = load ptr, ptr %2, align 8, !tbaa !71
  %9 = getelementptr inbounds nuw %struct.client, ptr %8, i32 0, i32 15
  %10 = load i32, ptr %9, align 8, !tbaa !82
  %11 = sub nsw i32 %10, 2
  %12 = sext i32 %11 to i64
  %13 = load ptr, ptr %2, align 8, !tbaa !71
  %14 = getelementptr inbounds nuw %struct.client, ptr %13, i32 0, i32 16
  %15 = load ptr, ptr %14, align 8, !tbaa !81
  %16 = getelementptr inbounds ptr, ptr %15, i64 1
  %17 = load ptr, ptr %16, align 8, !tbaa !41
  call void @sinterGenericCommand(ptr noundef %3, ptr noundef %7, i64 noundef %12, ptr noundef %17, i32 noundef 0, i64 noundef 0)
  ret void
}