; Function Attrs: nounwind uwtable
define dso_local void @sinterstoreCommand(ptr noundef %0) local_unnamed_addr #0 {
  %2 = getelementptr inbounds nuw i8, ptr %0, i64 96
  %3 = load ptr, ptr %2, align 8, !tbaa !72
  %4 = getelementptr inbounds nuw i8, ptr %3, i64 16
  %5 = getelementptr inbounds nuw i8, ptr %0, i64 88
  %6 = load i32, ptr %5, align 8, !tbaa !74
  %7 = add nsw i32 %6, -2
  %8 = sext i32 %7 to i64
  %9 = getelementptr inbounds nuw i8, ptr %3, i64 8
  %10 = load ptr, ptr %9, align 8, !tbaa !73
  tail call void @sinterGenericCommand(ptr noundef %0, ptr noundef nonnull %4, i64 noundef %8, ptr noundef %10, i32 noundef 0, i64 noundef 0)
  ret void
}